target datalayout = "e-m:e-p270:32:32-p271:32:32-p272:64:64-i64:64-i128:128-f80:128-n8:16:32:64-S128"
target triple = "x86_64-pc-linux-gnu"

%class.AttachOperation = type <{ ptr, [17 x i8], [3 x [1025 x i8]], [4 x i8] }>
%class.VM_Operation = type { ptr, ptr }
%class.VM_GC_HeapInspection = type { %class.VM_GC_Operation.base, ptr, i8, i32 }
%class.VM_GC_Operation.base = type <{ %class.VM_GC_Sync_Operation, i32, i32, i8, i8, [2 x i8], i32, i8 }>
%class.VM_GC_Sync_Operation = type { %class.VM_Operation }
%class.VM_GC_Operation = type <{ %class.VM_GC_Sync_Operation, i32, i32, i8, i8, [2 x i8], i32, i8, [7 x i8] }>

@.str.22 = private unnamed_addr constant [5 x i8] c"-all\00", align 1
@.str.23 = private unnamed_addr constant [6 x i8] c"-live\00", align 1
@_ZN2os31_initial_active_processor_countE = external global i32, align 4
@_ZTV12VM_Operation = external unnamed_addr constant { [12 x ptr] }, align 8
@.str.30 = private unnamed_addr constant [46 x i8] c"Invalid argument to inspectheap operation: %s\00", align 1
@.str.31 = private unnamed_addr constant [38 x i8] c"Failed to allocate space for file: %s\00", align 1
@.str.32 = private unnamed_addr constant [37 x i8] c"Invalid parallel thread number: [%s]\00", align 1
@.str.33 = private unnamed_addr constant [33 x i8] c"Heap inspection file created: %s\00", align 1
@_ZTV20VM_GC_HeapInspection = external unnamed_addr constant { [13 x ptr] }, align 8
@_ZTV15VM_GC_Operation = external unnamed_addr constant { [13 x ptr] }, align 8
@_ZTV20VM_GC_Sync_Operation = external unnamed_addr constant { [12 x ptr] }, align 8

; Function Attrs: mustprogress nounwind uwtable
define linkonce_odr hidden void @_ZN12VM_OperationC2Ev(ptr noundef nonnull align 8 dereferenceable(16) %0) unnamed_addr #1 comdat align 2 {
  %2 = alloca ptr, align 8
  store ptr %0, ptr %2, align 8
  %3 = load ptr, ptr %2, align 8
  store ptr getelementptr inbounds inrange(-16, 80) ({ [12 x ptr] }, ptr @_ZTV12VM_Operation, i32 0, i32 0, i32 2), ptr %3, align 8
  %4 = getelementptr inbounds %class.VM_Operation, ptr %3, i32 0, i32 1
  store ptr null, ptr %4, align 8
  ret void
}

; Function Attrs: mustprogress nounwind uwtable
define linkonce_odr hidden void @_ZN20VM_GC_Sync_OperationC2Ev(ptr noundef nonnull align 8 dereferenceable(16) %0) unnamed_addr #1 comdat align 2 {
  %2 = alloca ptr, align 8
  store ptr %0, ptr %2, align 8
  %3 = load ptr, ptr %2, align 8
  call void @_ZN12VM_OperationC2Ev(ptr noundef nonnull align 8 dereferenceable(16) %3)
  store ptr getelementptr inbounds inrange(-16, 80) ({ [12 x ptr] }, ptr @_ZTV20VM_GC_Sync_Operation, i32 0, i32 0, i32 2), ptr %3, align 8
  ret void
}

; Function Attrs: mustprogress nounwind uwtable
define linkonce_odr hidden void @_ZN15VM_GC_OperationC2EjN7GCCause5CauseEjb(ptr noundef nonnull align 8 dereferenceable(33) %0, i32 noundef %1, i32 noundef %2, i32 noundef %3, i1 noundef zeroext %4) unnamed_addr #1 comdat align 2 {
  %6 = alloca ptr, align 8
  %7 = alloca i32, align 4
  %8 = alloca i32, align 4
  %9 = alloca i32, align 4
  %10 = alloca i8, align 1
  store ptr %0, ptr %6, align 8
  store i32 %1, ptr %7, align 4
  store i32 %2, ptr %8, align 4
  store i32 %3, ptr %9, align 4
  %11 = zext i1 %4 to i8
  store i8 %11, ptr %10, align 1
  %12 = load ptr, ptr %6, align 8
  call void @_ZN20VM_GC_Sync_OperationC2Ev(ptr noundef nonnull align 8 dereferenceable(16) %12)
  store ptr getelementptr inbounds inrange(-16, 88) ({ [13 x ptr] }, ptr @_ZTV15VM_GC_Operation, i32 0, i32 0, i32 2), ptr %12, align 8
  %13 = load i8, ptr %10, align 1
  %14 = trunc i8 %13 to i1
  %15 = getelementptr inbounds %class.VM_GC_Operation, ptr %12, i32 0, i32 3
  %16 = zext i1 %14 to i8
  store i8 %16, ptr %15, align 8
  %17 = getelementptr inbounds %class.VM_GC_Operation, ptr %12, i32 0, i32 4
  store i8 0, ptr %17, align 1
  %18 = load i32, ptr %7, align 4
  %19 = getelementptr inbounds %class.VM_GC_Operation, ptr %12, i32 0, i32 1
  store i32 %18, ptr %19, align 8
  %20 = load i32, ptr %8, align 4
  %21 = getelementptr inbounds %class.VM_GC_Operation, ptr %12, i32 0, i32 6
  store i32 %20, ptr %21, align 4
  %22 = getelementptr inbounds %class.VM_GC_Operation, ptr %12, i32 0, i32 7
  store i8 0, ptr %22, align 8
  %23 = load i32, ptr %9, align 4
  %24 = getelementptr inbounds %class.VM_GC_Operation, ptr %12, i32 0, i32 2
  store i32 %23, ptr %24, align 4
  ret void
}

; Function Attrs: mustprogress nounwind uwtable
define linkonce_odr hidden void @_ZN20VM_GC_HeapInspectionD2Ev(ptr noundef nonnull align 8 dereferenceable(56) %0) unnamed_addr #1 comdat align 2 {
  %2 = alloca ptr, align 8
  store ptr %0, ptr %2, align 8
  %3 = load ptr, ptr %2, align 8
  call void @_ZN15VM_GC_OperationD2Ev(ptr noundef nonnull align 8 dereferenceable(33) %3) #9
  ret void
}

; Function Attrs: mustprogress nounwind uwtable
define linkonce_odr hidden void @_ZN20VM_GC_HeapInspectionC2EP12outputStreambj(ptr noundef nonnull align 8 dereferenceable(56) %0, ptr noundef %1, i1 noundef zeroext %2, i32 noundef %3) unnamed_addr #1 comdat align 2 {
  %5 = alloca ptr, align 8
  %6 = alloca ptr, align 8
  %7 = alloca i8, align 1
  %8 = alloca i32, align 4
  store ptr %0, ptr %5, align 8
  store ptr %1, ptr %6, align 8
  %9 = zext i1 %2 to i8
  store i8 %9, ptr %7, align 1
  store i32 %3, ptr %8, align 4
  %10 = load ptr, ptr %5, align 8
  %11 = load i8, ptr %7, align 1
  %12 = trunc i8 %11 to i1
  call void @_ZN15VM_GC_OperationC2EjN7GCCause5CauseEjb(ptr noundef nonnull align 8 dereferenceable(33) %10, i32 noundef 0, i32 noundef 6, i32 noundef 0, i1 noundef zeroext %12)
  store ptr getelementptr inbounds inrange(-16, 88) ({ [13 x ptr] }, ptr @_ZTV20VM_GC_HeapInspection, i32 0, i32 0, i32 2), ptr %10, align 8
  %13 = getelementptr inbounds %class.VM_GC_HeapInspection, ptr %10, i32 0, i32 1
  %14 = load ptr, ptr %6, align 8
  store ptr %14, ptr %13, align 8
  %15 = getelementptr inbounds %class.VM_GC_HeapInspection, ptr %10, i32 0, i32 2
  %16 = load i8, ptr %7, align 1
  %17 = trunc i8 %16 to i1
  %18 = zext i1 %17 to i8
  store i8 %18, ptr %15, align 8
  %19 = getelementptr inbounds %class.VM_GC_HeapInspection, ptr %10, i32 0, i32 3
  %20 = load i32, ptr %8, align 4
  store i32 %20, ptr %19, align 4
  ret void
}

; Function Attrs: mustprogress nounwind uwtable
define linkonce_odr hidden noundef i32 @_Z4MAX2IjET_S0_S0_(i32 noundef %0, i32 noundef %1) #1 comdat {
  %3 = alloca i32, align 4
  %4 = alloca i32, align 4
  store i32 %0, ptr %3, align 4
  store i32 %1, ptr %4, align 4
  %5 = load i32, ptr %3, align 4
  %6 = load i32, ptr %4, align 4
  %7 = icmp ugt i32 %5, %6
  br i1 %7, label %8, label %10

8:                                                ; preds = %2
  %9 = load i32, ptr %3, align 4
  br label %12

10:                                               ; preds = %2
  %11 = load i32, ptr %4, align 4
  br label %12

12:                                               ; preds = %10, %8
  %13 = phi i32 [ %9, %8 ], [ %11, %10 ]
  ret i32 %13
}

; Function Attrs: mustprogress nounwind uwtable
define linkonce_odr hidden noundef i32 @_ZN2os30initial_active_processor_countEv() #1 comdat align 2 {
  %1 = load i32, ptr @_ZN2os31_initial_active_processor_countE, align 4
  ret i32 %1
}

; Function Attrs: mustprogress nounwind uwtable
define linkonce_odr hidden noundef ptr @_ZNK15AttachOperation3argEi(ptr noundef nonnull align 8 dereferenceable(3100) %0, i32 noundef %1) #1 comdat align 2 {
  %3 = alloca ptr, align 8
  %4 = alloca i32, align 4
  store ptr %0, ptr %3, align 8
  store i32 %1, ptr %4, align 4
  %5 = load ptr, ptr %3, align 8
  %6 = getelementptr inbounds %class.AttachOperation, ptr %5, i32 0, i32 2
  %7 = load i32, ptr %4, align 4
  %8 = sext i32 %7 to i64
  %9 = getelementptr inbounds [3 x [1025 x i8]], ptr %6, i64 0, i64 %8
  %10 = getelementptr inbounds [1025 x i8], ptr %9, i64 0, i64 0
  ret ptr %10
}

; Function Attrs: mustprogress nounwind uwtable
define internal noundef i32 @_ZL15heap_inspectionP15AttachOperationP12outputStream(ptr noundef %0, ptr noundef %1) #1 {
  %3 = alloca i64, align 8
  %4 = alloca i8, align 1
  %5 = alloca i32, align 4
  %6 = alloca ptr, align 8
  %7 = alloca ptr, align 8
  %8 = alloca i8, align 1
  %9 = alloca ptr, align 8
  %10 = alloca ptr, align 8
  %11 = alloca ptr, align 8
  %12 = alloca i32, align 4
  %13 = alloca ptr, align 8
  %14 = alloca ptr, align 8
  %15 = alloca i32, align 4
  %16 = alloca %class.VM_GC_HeapInspection, align 8
  store ptr %0, ptr %6, align 8
  store ptr %1, ptr %7, align 8
  store i8 1, ptr %8, align 1
  %17 = load ptr, ptr %7, align 8
  store ptr %17, ptr %9, align 8
  store ptr null, ptr %10, align 8
  %18 = load ptr, ptr %6, align 8
  %19 = call noundef ptr @_ZNK15AttachOperation3argEi(ptr noundef nonnull align 8 dereferenceable(3100) %18, i32 noundef 0)
  store ptr %19, ptr %11, align 8
  %20 = call noundef i32 @_ZN2os30initial_active_processor_countEv()
  %21 = mul i32 %20, 3
  %22 = udiv i32 %21, 8
  %23 = call noundef i32 @_Z4MAX2IjET_S0_S0_(i32 noundef 1, i32 noundef %22)
  store i32 %23, ptr %12, align 4
  %24 = load ptr, ptr %11, align 8
  %25 = icmp ne ptr %24, null
  br i1 %25, label %26, label %46

26:                                               ; preds = %2
  %27 = load ptr, ptr %11, align 8
  %28 = call i64 @strlen(ptr noundef %27) #8
  %29 = icmp ugt i64 %28, 0
  br i1 %29, label %30, label %46

30:                                               ; preds = %26
  %31 = load ptr, ptr %11, align 8
  %32 = call i32 @strcmp(ptr noundef %31, ptr noundef @.str.22) #8
  %33 = icmp ne i32 %32, 0
  br i1 %33, label %34, label %41

34:                                               ; preds = %30
  %35 = load ptr, ptr %11, align 8
  %36 = call i32 @strcmp(ptr noundef %35, ptr noundef @.str.23) #8
  %37 = icmp ne i32 %36, 0
  br i1 %37, label %38, label %41

38:                                               ; preds = %34
  %39 = load ptr, ptr %7, align 8
  %40 = load ptr, ptr %11, align 8
  call void (ptr, ptr, ...) @_ZN12outputStream8print_crEPKcz(ptr noundef nonnull align 8 dereferenceable(56) %39, ptr noundef @.str.30, ptr noundef %40)
  store i32 -1, ptr %5, align 4
  br label %124

41:                                               ; preds = %34, %30
  %42 = load ptr, ptr %11, align 8
  %43 = call i32 @strcmp(ptr noundef %42, ptr noundef @.str.23) #8
  %44 = icmp eq i32 %43, 0
  %45 = zext i1 %44 to i8
  store i8 %45, ptr %8, align 1
  br label %46

46:                                               ; preds = %41, %26, %2
  %47 = load ptr, ptr %6, align 8
  %48 = call noundef ptr @_ZNK15AttachOperation3argEi(ptr noundef nonnull align 8 dereferenceable(3100) %47, i32 noundef 1)
  store ptr %48, ptr %13, align 8
  %49 = load ptr, ptr %13, align 8
  %50 = icmp ne ptr %49, null
  br i1 %50, label %51, label %69

51:                                               ; preds = %46
  %52 = load ptr, ptr %13, align 8
  %53 = getelementptr inbounds i8, ptr %52, i64 0
  %54 = load i8, ptr %53, align 1
  %55 = sext i8 %54 to i32
  %56 = icmp ne i32 %55, 0
  br i1 %56, label %57, label %69

57:                                               ; preds = %51
  store i64 72, ptr %3, align 8
  store i8 9, ptr %4, align 1
  %58 = load i64, ptr %3, align 8
  %59 = load i8, ptr %4, align 1
  %60 = call noundef ptr @_Z12AllocateHeapm8MEMFLAGSN17AllocFailStrategy13AllocFailEnumE(i64 noundef %58, i8 noundef zeroext %59, i32 noundef 0) #9
  %61 = load ptr, ptr %13, align 8
  call void @_ZN10fileStreamC1EPKc(ptr noundef nonnull align 8 dereferenceable(65) %60, ptr noundef %61)
  store ptr %60, ptr %10, align 8
  %62 = load ptr, ptr %10, align 8
  %63 = icmp eq ptr %62, null
  br i1 %63, label %64, label %67

64:                                               ; preds = %57
  %65 = load ptr, ptr %7, align 8
  %66 = load ptr, ptr %13, align 8
  call void (ptr, ptr, ...) @_ZN12outputStream8print_crEPKcz(ptr noundef nonnull align 8 dereferenceable(56) %65, ptr noundef @.str.31, ptr noundef %66)
  br label %67

67:                                               ; preds = %64, %57
  %68 = load ptr, ptr %10, align 8
  store ptr %68, ptr %9, align 8
  br label %69

69:                                               ; preds = %67, %51, %46
  %70 = load ptr, ptr %6, align 8
  %71 = call noundef ptr @_ZNK15AttachOperation3argEi(ptr noundef nonnull align 8 dereferenceable(3100) %70, i32 noundef 2)
  store ptr %71, ptr %14, align 8
  %72 = load ptr, ptr %14, align 8
  %73 = icmp ne ptr %72, null
  br i1 %73, label %74, label %102

74:                                               ; preds = %69
  %75 = load ptr, ptr %14, align 8
  %76 = getelementptr inbounds i8, ptr %75, i64 0
  %77 = load i8, ptr %76, align 1
  %78 = sext i8 %77 to i32
  %79 = icmp ne i32 %78, 0
  br i1 %79, label %80, label %102

80:                                               ; preds = %74
  %81 = load ptr, ptr %14, align 8
  %82 = call noundef zeroext i1 @_ZN9Arguments10parse_uintEPKcPjj(ptr noundef %81, ptr noundef %15, i32 noundef 0)
  br i1 %82, label %93, label %83

83:                                               ; preds = %80
  %84 = load ptr, ptr %7, align 8
  %85 = load ptr, ptr %14, align 8
  call void (ptr, ptr, ...) @_ZN12outputStream8print_crEPKcz(ptr noundef nonnull align 8 dereferenceable(56) %84, ptr noundef @.str.32, ptr noundef %85)
  %86 = load ptr, ptr %10, align 8
  %87 = icmp eq ptr %86, null
  br i1 %87, label %92, label %88

88:                                               ; preds = %83
  %89 = load ptr, ptr %86, align 8
  %90 = getelementptr inbounds ptr, ptr %89, i64 4
  %91 = load ptr, ptr %90, align 8
  call void %91(ptr noundef nonnull align 8 dereferenceable(65) %86) #9
  br label %92

92:                                               ; preds = %88, %83
  store i32 -1, ptr %5, align 4
  br label %124

93:                                               ; preds = %80
  %94 = load i32, ptr %15, align 4
  %95 = icmp eq i32 %94, 0
  br i1 %95, label %96, label %98

96:                                               ; preds = %93
  %97 = load i32, ptr %12, align 4
  br label %100

98:                                               ; preds = %93
  %99 = load i32, ptr %15, align 4
  br label %100

100:                                              ; preds = %98, %96
  %101 = phi i32 [ %97, %96 ], [ %99, %98 ]
  store i32 %101, ptr %12, align 4
  br label %102

102:                                              ; preds = %100, %74, %69
  %103 = load ptr, ptr %9, align 8
  %104 = load i8, ptr %8, align 1
  %105 = trunc i8 %104 to i1
  %106 = load i32, ptr %12, align 4
  call void @_ZN20VM_GC_HeapInspectionC2EP12outputStreambj(ptr noundef nonnull align 8 dereferenceable(56) %16, ptr noundef %103, i1 noundef zeroext %105, i32 noundef %106)
  call void @_ZN8VMThread7executeEP12VM_Operation(ptr noundef %16)
  %107 = load ptr, ptr %9, align 8
  %108 = icmp ne ptr %107, null
  br i1 %108, label %109, label %123

109:                                              ; preds = %102
  %110 = load ptr, ptr %9, align 8
  %111 = load ptr, ptr %7, align 8
  %112 = icmp ne ptr %110, %111
  br i1 %112, label %113, label %123

113:                                              ; preds = %109
  %114 = load ptr, ptr %7, align 8
  %115 = load ptr, ptr %13, align 8
  call void (ptr, ptr, ...) @_ZN12outputStream8print_crEPKcz(ptr noundef nonnull align 8 dereferenceable(56) %114, ptr noundef @.str.33, ptr noundef %115)
  %116 = load ptr, ptr %10, align 8
  %117 = icmp eq ptr %116, null
  br i1 %117, label %122, label %118

118:                                              ; preds = %113
  %119 = load ptr, ptr %116, align 8
  %120 = getelementptr inbounds ptr, ptr %119, i64 4
  %121 = load ptr, ptr %120, align 8
  call void %121(ptr noundef nonnull align 8 dereferenceable(65) %116) #9
  br label %122

122:                                              ; preds = %118, %113
  br label %123

123:                                              ; preds = %122, %109, %102
  store i32 0, ptr %5, align 4
  call void @_ZN20VM_GC_HeapInspectionD2Ev(ptr noundef nonnull align 8 dereferenceable(56) %16) #9
  br label %124

124:                                              ; preds = %123, %92, %38
  %125 = load i32, ptr %5, align 4
  ret i32 %125
}