; Function Attrs: mustprogress nounwind uwtable
define internal noundef range(i32 -1, 1) i32 @_ZL15heap_inspectionP15AttachOperationP12outputStream(ptr noundef %0, ptr noundef %1) #0 {
  %3 = alloca i32, align 4
  %4 = alloca %class.VM_GC_HeapInspection, align 8
  %5 = getelementptr inbounds i8, ptr %0, i64 25
  %6 = load i32, ptr @_ZN2os31_initial_active_processor_countE, align 4
  %7 = mul i32 %6, 3
  %8 = lshr i32 %7, 3
  %9 = tail call noundef i32 @llvm.umax.i32(i32 %8, i32 1)
  %char0 = load i8, ptr %5, align 1
  %.not44 = icmp eq i8 %char0, 0
  br i1 %.not44, label %19, label %10

10:                                               ; preds = %2
  %11 = tail call i32 @strcmp(ptr noundef nonnull dereferenceable(1) %5, ptr noundef nonnull dereferenceable(5) @.str.22) #9
  %.not45 = icmp eq i32 %11, 0
  br i1 %.not45, label %15, label %12

12:                                               ; preds = %10
  %13 = tail call i32 @strcmp(ptr noundef nonnull dereferenceable(1) %5, ptr noundef nonnull dereferenceable(6) @.str.23) #9
  %.not46 = icmp eq i32 %13, 0
  br i1 %.not46, label %15, label %14

14:                                               ; preds = %12
  tail call void (ptr, ptr, ...) @_ZN12outputStream8print_crEPKcz(ptr noundef nonnull align 8 dereferenceable(56) %1, ptr noundef nonnull @.str.30, ptr noundef nonnull %5) #8
  br label %57

15:                                               ; preds = %12, %10
  %16 = tail call i32 @strcmp(ptr noundef nonnull dereferenceable(1) %5, ptr noundef nonnull dereferenceable(6) @.str.23) #9
  %17 = icmp eq i32 %16, 0
  %18 = zext i1 %17 to i8
  br label %19

19:                                               ; preds = %2, %15
  %.036 = phi i8 [ %18, %15 ], [ 1, %2 ]
  %20 = getelementptr inbounds i8, ptr %0, i64 1050
  %21 = load i8, ptr %20, align 1
  %.not48 = icmp eq i8 %21, 0
  br i1 %.not48, label %24, label %22

22:                                               ; preds = %19
  %23 = tail call noundef ptr @_Z12AllocateHeapm8MEMFLAGSN17AllocFailStrategy13AllocFailEnumE(i64 noundef 72, i8 noundef zeroext 9, i32 noundef 0) #8
  tail call void @_ZN10fileStreamC1EPKc(ptr noundef nonnull align 8 dereferenceable(65) %23, ptr noundef nonnull %20) #8
  br label %24

24:                                               ; preds = %19, %22
  %.039 = phi ptr [ %23, %22 ], [ null, %19 ]
  %.038 = phi ptr [ %23, %22 ], [ %1, %19 ]
  %25 = getelementptr inbounds i8, ptr %0, i64 2075
  %26 = load i8, ptr %25, align 1
  %.not50 = icmp eq i8 %26, 0
  br i1 %.not50, label %39, label %27

27:                                               ; preds = %24
  %28 = call noundef zeroext i1 @_ZN9Arguments10parse_uintEPKcPjj(ptr noundef nonnull %25, ptr noundef nonnull %3, i32 noundef 0) #8
  br i1 %28, label %35, label %29

29:                                               ; preds = %27
  call void (ptr, ptr, ...) @_ZN12outputStream8print_crEPKcz(ptr noundef nonnull align 8 dereferenceable(56) %1, ptr noundef nonnull @.str.32, ptr noundef nonnull %25) #8
  %30 = icmp eq ptr %.039, null
  br i1 %30, label %57, label %31

31:                                               ; preds = %29
  %32 = load ptr, ptr %.039, align 8
  %33 = getelementptr inbounds i8, ptr %32, i64 32
  %34 = load ptr, ptr %33, align 8
  call void %34(ptr noundef nonnull align 8 dereferenceable(65) %.039) #8
  br label %57

35:                                               ; preds = %27
  %36 = load i32, ptr %3, align 4
  %37 = icmp eq i32 %36, 0
  %38 = select i1 %37, i32 %9, i32 %36
  br label %39

39:                                               ; preds = %35, %24
  %.037 = phi i32 [ %38, %35 ], [ %9, %24 ]
  %40 = getelementptr inbounds i8, ptr %4, i64 8
  store ptr null, ptr %40, align 8
  %41 = getelementptr inbounds i8, ptr %4, i64 24
  store i8 %.036, ptr %41, align 8
  %42 = getelementptr inbounds i8, ptr %4, i64 25
  store i8 0, ptr %42, align 1
  %43 = getelementptr inbounds i8, ptr %4, i64 16
  store i32 0, ptr %43, align 8
  %44 = getelementptr inbounds i8, ptr %4, i64 28
  store i32 6, ptr %44, align 4
  %45 = getelementptr inbounds i8, ptr %4, i64 32
  store i8 0, ptr %45, align 8
  %46 = getelementptr inbounds i8, ptr %4, i64 20
  store i32 0, ptr %46, align 4
  store ptr getelementptr inbounds inrange(-16, 88) (i8, ptr @_ZTV20VM_GC_HeapInspection, i64 16), ptr %4, align 8
  %47 = getelementptr inbounds i8, ptr %4, i64 40
  store ptr %.038, ptr %47, align 8
  %48 = getelementptr inbounds i8, ptr %4, i64 48
  store i8 %.036, ptr %48, align 8
  %49 = getelementptr inbounds i8, ptr %4, i64 52
  store i32 %.037, ptr %49, align 4
  call void @_ZN8VMThread7executeEP12VM_Operation(ptr noundef nonnull %4) #8
  %.not51 = icmp eq ptr %.038, null
  %.not52 = icmp eq ptr %.038, %1
  %or.cond = or i1 %.not51, %.not52
  br i1 %or.cond, label %56, label %50

50:                                               ; preds = %39
  call void (ptr, ptr, ...) @_ZN12outputStream8print_crEPKcz(ptr noundef nonnull align 8 dereferenceable(56) %1, ptr noundef nonnull @.str.33, ptr noundef nonnull %20) #8
  %51 = icmp eq ptr %.039, null
  br i1 %51, label %56, label %52

52:                                               ; preds = %50
  %53 = load ptr, ptr %.039, align 8
  %54 = getelementptr inbounds i8, ptr %53, i64 32
  %55 = load ptr, ptr %54, align 8
  call void %55(ptr noundef nonnull align 8 dereferenceable(65) %.039) #8
  br label %56

56:                                               ; preds = %50, %52, %39
  call void @_ZN15VM_GC_OperationD2Ev(ptr noundef nonnull align 8 dereferenceable(33) %4) #8
  br label %57

57:                                               ; preds = %29, %31, %56, %14
  %.0 = phi i32 [ -1, %14 ], [ 0, %56 ], [ -1, %31 ], [ -1, %29 ]
  ret i32 %.0
}